
test_func2.elf:     file format elf32-tradbigmips


Disassembly of section .init:

00400500 <_init>:
  400500:	3c1c0002 	lui	gp,0x2
  400504:	279c7b10 	addiu	gp,gp,31504
  400508:	0399e021 	addu	gp,gp,t9
  40050c:	27bdffe0 	addiu	sp,sp,-32
  400510:	afbc0010 	sw	gp,16(sp)
  400514:	afbf001c 	sw	ra,28(sp)
  400518:	8f828020 	lw	v0,-32736(gp)
  40051c:	10400004 	beqz	v0,400530 <_init+0x30>
  400520:	00000000 	nop
  400524:	8f998020 	lw	t9,-32736(gp)
  400528:	0320f809 	jalr	t9
  40052c:	00000000 	nop
  400530:	8fbf001c 	lw	ra,28(sp)
  400534:	03e00008 	jr	ra
  400538:	27bd0020 	addiu	sp,sp,32

Disassembly of section .text:

00400540 <__start>:
  400540:	03e00025 	move	zero,ra
  400544:	04110001 	bal	40054c <__start+0xc>
  400548:	00000000 	nop
  40054c:	3c1c0002 	lui	gp,0x2
  400550:	279c7ac4 	addiu	gp,gp,31428
  400554:	039fe021 	addu	gp,gp,ra
  400558:	0000f825 	move	ra,zero
  40055c:	8f848018 	lw	a0,-32744(gp)
  400560:	8fa50000 	lw	a1,0(sp)
  400564:	27a60004 	addiu	a2,sp,4
  400568:	2401fff8 	li	at,-8
  40056c:	03a1e824 	and	sp,sp,at
  400570:	27bdffe0 	addiu	sp,sp,-32
  400574:	00003825 	move	a3,zero
  400578:	afa00010 	sw	zero,16(sp)
  40057c:	afa20014 	sw	v0,20(sp)
  400580:	afbd0018 	sw	sp,24(sp)
  400584:	8f99802c 	lw	t9,-32724(gp)
  400588:	0320f809 	jalr	t9
  40058c:	00000000 	nop

00400590 <hlt>:
  400590:	1000ffff 	b	400590 <hlt>
  400594:	00000000 	nop
	...

004005a0 <deregister_tm_clones>:
  4005a0:	3c040042 	lui	a0,0x42
  4005a4:	3c020042 	lui	v0,0x42
  4005a8:	24840014 	addiu	a0,a0,20
  4005ac:	24420014 	addiu	v0,v0,20
  4005b0:	10440007 	beq	v0,a0,4005d0 <deregister_tm_clones+0x30>
  4005b4:	3c1c0043 	lui	gp,0x43
  4005b8:	279c8010 	addiu	gp,gp,-32752
  4005bc:	8f998028 	lw	t9,-32728(gp)
  4005c0:	13200003 	beqz	t9,4005d0 <deregister_tm_clones+0x30>
  4005c4:	00000000 	nop
  4005c8:	03200008 	jr	t9
  4005cc:	00000000 	nop
  4005d0:	03e00008 	jr	ra
  4005d4:	00000000 	nop

004005d8 <register_tm_clones>:
  4005d8:	3c040042 	lui	a0,0x42
  4005dc:	3c020042 	lui	v0,0x42
  4005e0:	24840014 	addiu	a0,a0,20
  4005e4:	24450014 	addiu	a1,v0,20
  4005e8:	00a42823 	subu	a1,a1,a0
  4005ec:	00051083 	sra	v0,a1,0x2
  4005f0:	00052fc2 	srl	a1,a1,0x1f
  4005f4:	00a22821 	addu	a1,a1,v0
  4005f8:	00052843 	sra	a1,a1,0x1
  4005fc:	10a00007 	beqz	a1,40061c <register_tm_clones+0x44>
  400600:	3c1c0043 	lui	gp,0x43
  400604:	279c8010 	addiu	gp,gp,-32752
  400608:	8f99801c 	lw	t9,-32740(gp)
  40060c:	13200003 	beqz	t9,40061c <register_tm_clones+0x44>
  400610:	00000000 	nop
  400614:	03200008 	jr	t9
  400618:	00000000 	nop
  40061c:	03e00008 	jr	ra
  400620:	00000000 	nop

00400624 <__do_global_dtors_aux>:
  400624:	27bdffe0 	addiu	sp,sp,-32
  400628:	afb00018 	sw	s0,24(sp)
  40062c:	3c100042 	lui	s0,0x42
  400630:	afbf001c 	sw	ra,28(sp)
  400634:	92020050 	lbu	v0,80(s0)
  400638:	14400006 	bnez	v0,400654 <__do_global_dtors_aux+0x30>
  40063c:	8fbf001c 	lw	ra,28(sp)
  400640:	0c100168 	jal	4005a0 <deregister_tm_clones>
  400644:	00000000 	nop
  400648:	24020001 	li	v0,1
  40064c:	a2020050 	sb	v0,80(s0)
  400650:	8fbf001c 	lw	ra,28(sp)
  400654:	8fb00018 	lw	s0,24(sp)
  400658:	03e00008 	jr	ra
  40065c:	27bd0020 	addiu	sp,sp,32

00400660 <frame_dummy>:
  400660:	08100176 	j	4005d8 <register_tm_clones>
  400664:	00000000 	nop
	...

00400670 <main>:
  400670:	27bdffe0 	addiu	sp,sp,-32
  400674:	afbf001c 	sw	ra,28(sp)
  400678:	afbe0018 	sw	s8,24(sp)
  40067c:	03a0f025 	move	s8,sp
  400680:	3c1c0043 	lui	gp,0x43
  400684:	279c8010 	addiu	gp,gp,-32752
  400688:	afbc0010 	sw	gp,16(sp)
  40068c:	afc40020 	sw	a0,32(s8)
  400690:	afc50024 	sw	a1,36(s8)
  400694:	afc60028 	sw	a2,40(s8)
  400698:	8fc30020 	lw	v1,32(s8)
  40069c:	24020002 	li	v0,2
  4006a0:	1062000b 	beq	v1,v0,4006d0 <main+0x60>
  4006a4:	00000000 	nop
  4006a8:	3c020040 	lui	v0,0x40
  4006ac:	244407f0 	addiu	a0,v0,2032
  4006b0:	8f828024 	lw	v0,-32732(gp)
  4006b4:	0040c825 	move	t9,v0
  4006b8:	0320f809 	jalr	t9
  4006bc:	00000000 	nop
  4006c0:	8fdc0010 	lw	gp,16(s8)
  4006c4:	2402ffff 	li	v0,-1
  4006c8:	10000020 	b	40074c <main+0xdc>
  4006cc:	00000000 	nop
  4006d0:	8fc20024 	lw	v0,36(s8)
  4006d4:	24420004 	addiu	v0,v0,4
  4006d8:	8c430000 	lw	v1,0(v0)
  4006dc:	3c020040 	lui	v0,0x40
  4006e0:	244507fc 	addiu	a1,v0,2044
  4006e4:	00602025 	move	a0,v1
  4006e8:	8f828030 	lw	v0,-32720(gp)
  4006ec:	0040c825 	move	t9,v0
  4006f0:	0320f809 	jalr	t9
  4006f4:	00000000 	nop
  4006f8:	8fdc0010 	lw	gp,16(s8)
  4006fc:	1440000b 	bnez	v0,40072c <main+0xbc>
  400700:	00000000 	nop
  400704:	3c020040 	lui	v0,0x40
  400708:	24440804 	addiu	a0,v0,2052
  40070c:	8f828024 	lw	v0,-32732(gp)
  400710:	0040c825 	move	t9,v0
  400714:	0320f809 	jalr	t9
  400718:	00000000 	nop
  40071c:	8fdc0010 	lw	gp,16(s8)
  400720:	00001025 	move	v0,zero
  400724:	10000009 	b	40074c <main+0xdc>
  400728:	00000000 	nop
  40072c:	3c020040 	lui	v0,0x40
  400730:	24440810 	addiu	a0,v0,2064
  400734:	8f828024 	lw	v0,-32732(gp)
  400738:	0040c825 	move	t9,v0
  40073c:	0320f809 	jalr	t9
  400740:	00000000 	nop
  400744:	8fdc0010 	lw	gp,16(s8)
  400748:	2402fffe 	li	v0,-2
  40074c:	03c0e825 	move	sp,s8
  400750:	8fbf001c 	lw	ra,28(sp)
  400754:	8fbe0018 	lw	s8,24(sp)
  400758:	27bd0020 	addiu	sp,sp,32
  40075c:	03e00008 	jr	ra
  400760:	00000000 	nop
	...

Disassembly of section .fini:

004007b0 <_fini>:
  4007b0:	3c1c0002 	lui	gp,0x2
  4007b4:	279c7860 	addiu	gp,gp,30816
  4007b8:	0399e021 	addu	gp,gp,t9
  4007bc:	27bdffe0 	addiu	sp,sp,-32
  4007c0:	afbc0010 	sw	gp,16(sp)
  4007c4:	afbf001c 	sw	ra,28(sp)
  4007c8:	8fbf001c 	lw	ra,28(sp)
  4007cc:	03e00008 	jr	ra
  4007d0:	27bd0020 	addiu	sp,sp,32

Disassembly of section .rld_map:

00420010 <__RLD_MAP>:
  420010:	00000000 	nop
